target datalayout = "e-m:e-p270:32:32-p271:32:32-p272:64:64-i64:64-i128:128-f80:128-n8:16:32:64-S128"
target triple = "x86_64-pc-linux-gnu"

%struct.Vec_Int_t_ = type { i32, i32, ptr }

; Function Attrs: inlinehint nounwind uwtable
define internal void @Vec_IntGrow(ptr noundef %0, i32 noundef %1) #2 {
  %3 = alloca ptr, align 8
  %4 = alloca i32, align 4
  store ptr %0, ptr %3, align 8, !tbaa !24
  store i32 %1, ptr %4, align 4, !tbaa !10
  %5 = load ptr, ptr %3, align 8, !tbaa !24
  %6 = getelementptr inbounds nuw %struct.Vec_Int_t_, ptr %5, i32 0, i32 0
  %7 = load i32, ptr %6, align 8, !tbaa !28
  %8 = load i32, ptr %4, align 4, !tbaa !10
  %9 = icmp sge i32 %7, %8
  br i1 %9, label %10, label %11

10:                                               ; preds = %2
  br label %36

11:                                               ; preds = %2
  %12 = load ptr, ptr %3, align 8, !tbaa !24
  %13 = getelementptr inbounds nuw %struct.Vec_Int_t_, ptr %12, i32 0, i32 2
  %14 = load ptr, ptr %13, align 8, !tbaa !29
  %15 = icmp ne ptr %14, null
  br i1 %15, label %16, label %24

16:                                               ; preds = %11
  %17 = load ptr, ptr %3, align 8, !tbaa !24
  %18 = getelementptr inbounds nuw %struct.Vec_Int_t_, ptr %17, i32 0, i32 2
  %19 = load ptr, ptr %18, align 8, !tbaa !29
  %20 = load i32, ptr %4, align 4, !tbaa !10
  %21 = sext i32 %20 to i64
  %22 = mul i64 4, %21
  %23 = call ptr @realloc(ptr noundef %19, i64 noundef %22) #11
  br label %29

24:                                               ; preds = %11
  %25 = load i32, ptr %4, align 4, !tbaa !10
  %26 = sext i32 %25 to i64
  %27 = mul i64 4, %26
  %28 = call noalias ptr @malloc(i64 noundef %27) #12
  br label %29

29:                                               ; preds = %24, %16
  %30 = phi ptr [ %23, %16 ], [ %28, %24 ]
  %31 = load ptr, ptr %3, align 8, !tbaa !24
  %32 = getelementptr inbounds nuw %struct.Vec_Int_t_, ptr %31, i32 0, i32 2
  store ptr %30, ptr %32, align 8, !tbaa !29
  %33 = load i32, ptr %4, align 4, !tbaa !10
  %34 = load ptr, ptr %3, align 8, !tbaa !24
  %35 = getelementptr inbounds nuw %struct.Vec_Int_t_, ptr %34, i32 0, i32 0
  store i32 %33, ptr %35, align 8, !tbaa !28
  br label %36

36:                                               ; preds = %29, %10
  ret void
}

; Function Attrs: inlinehint nounwind uwtable
define internal ptr @Vec_IntArray(ptr noundef %0) #2 {
  %2 = alloca ptr, align 8
  store ptr %0, ptr %2, align 8, !tbaa !24
  %3 = load ptr, ptr %2, align 8, !tbaa !24
  %4 = getelementptr inbounds nuw %struct.Vec_Int_t_, ptr %3, i32 0, i32 2
  %5 = load ptr, ptr %4, align 8, !tbaa !29
  ret ptr %5
}

; Function Attrs: inlinehint nounwind uwtable
define internal void @Vec_IntPush(ptr noundef %0, i32 noundef %1) #2 {
  %3 = alloca ptr, align 8
  %4 = alloca i32, align 4
  store ptr %0, ptr %3, align 8, !tbaa !24
  store i32 %1, ptr %4, align 4, !tbaa !10
  %5 = load ptr, ptr %3, align 8, !tbaa !24
  %6 = getelementptr inbounds nuw %struct.Vec_Int_t_, ptr %5, i32 0, i32 1
  %7 = load i32, ptr %6, align 4, !tbaa !25
  %8 = load ptr, ptr %3, align 8, !tbaa !24
  %9 = getelementptr inbounds nuw %struct.Vec_Int_t_, ptr %8, i32 0, i32 0
  %10 = load i32, ptr %9, align 8, !tbaa !28
  %11 = icmp eq i32 %7, %10
  br i1 %11, label %12, label %26

12:                                               ; preds = %2
  %13 = load ptr, ptr %3, align 8, !tbaa !24
  %14 = getelementptr inbounds nuw %struct.Vec_Int_t_, ptr %13, i32 0, i32 0
  %15 = load i32, ptr %14, align 8, !tbaa !28
  %16 = icmp slt i32 %15, 16
  br i1 %16, label %17, label %19

17:                                               ; preds = %12
  %18 = load ptr, ptr %3, align 8, !tbaa !24
  call void @Vec_IntGrow(ptr noundef %18, i32 noundef 16)
  br label %25

19:                                               ; preds = %12
  %20 = load ptr, ptr %3, align 8, !tbaa !24
  %21 = load ptr, ptr %3, align 8, !tbaa !24
  %22 = getelementptr inbounds nuw %struct.Vec_Int_t_, ptr %21, i32 0, i32 0
  %23 = load i32, ptr %22, align 8, !tbaa !28
  %24 = mul nsw i32 2, %23
  call void @Vec_IntGrow(ptr noundef %20, i32 noundef %24)
  br label %25

25:                                               ; preds = %19, %17
  br label %26

26:                                               ; preds = %25, %2
  %27 = load i32, ptr %4, align 4, !tbaa !10
  %28 = load ptr, ptr %3, align 8, !tbaa !24
  %29 = getelementptr inbounds nuw %struct.Vec_Int_t_, ptr %28, i32 0, i32 2
  %30 = load ptr, ptr %29, align 8, !tbaa !29
  %31 = load ptr, ptr %3, align 8, !tbaa !24
  %32 = getelementptr inbounds nuw %struct.Vec_Int_t_, ptr %31, i32 0, i32 1
  %33 = load i32, ptr %32, align 4, !tbaa !25
  %34 = add nsw i32 %33, 1
  store i32 %34, ptr %32, align 4, !tbaa !25
  %35 = sext i32 %33 to i64
  %36 = getelementptr inbounds i32, ptr %30, i64 %35
  store i32 %27, ptr %36, align 4, !tbaa !10
  ret void
}

; Function Attrs: inlinehint nounwind uwtable
define internal i32 @Abc_Lit2Var(i32 noundef %0) #2 {
  %2 = alloca i32, align 4
  store i32 %0, ptr %2, align 4, !tbaa !10
  %3 = load i32, ptr %2, align 4, !tbaa !10
  %4 = ashr i32 %3, 1
  ret i32 %4
}

; Function Attrs: inlinehint nounwind uwtable
define internal i32 @Abc_LitIsCompl(i32 noundef %0) #2 {
  %2 = alloca i32, align 4
  store i32 %0, ptr %2, align 4, !tbaa !10
  %3 = load i32, ptr %2, align 4, !tbaa !10
  %4 = and i32 %3, 1
  ret i32 %4
}

; Function Attrs: inlinehint nounwind uwtable
define internal i32 @Vec_IntEntry(ptr noundef %0, i32 noundef %1) #2 {
  %3 = alloca ptr, align 8
  %4 = alloca i32, align 4
  store ptr %0, ptr %3, align 8, !tbaa !24
  store i32 %1, ptr %4, align 4, !tbaa !10
  %5 = load ptr, ptr %3, align 8, !tbaa !24
  %6 = getelementptr inbounds nuw %struct.Vec_Int_t_, ptr %5, i32 0, i32 2
  %7 = load ptr, ptr %6, align 8, !tbaa !29
  %8 = load i32, ptr %4, align 4, !tbaa !10
  %9 = sext i32 %8 to i64
  %10 = getelementptr inbounds i32, ptr %7, i64 %9
  %11 = load i32, ptr %10, align 4, !tbaa !10
  ret i32 %11
}

; Function Attrs: inlinehint nounwind uwtable
define internal i32 @Vec_IntSize(ptr noundef %0) #2 {
  %2 = alloca ptr, align 8
  store ptr %0, ptr %2, align 8, !tbaa !24
  %3 = load ptr, ptr %2, align 8, !tbaa !24
  %4 = getelementptr inbounds nuw %struct.Vec_Int_t_, ptr %3, i32 0, i32 1
  %5 = load i32, ptr %4, align 4, !tbaa !25
  ret i32 %5
}

; Function Attrs: nounwind uwtable
define void @Fxch_DivSepareteCubes(ptr noundef %0, ptr noundef %1, ptr noundef %2) #0 {
  %4 = alloca ptr, align 8
  %5 = alloca ptr, align 8
  %6 = alloca ptr, align 8
  %7 = alloca ptr, align 8
  %8 = alloca i32, align 4
  %9 = alloca i32, align 4
  %10 = alloca i32, align 4
  %11 = alloca i32, align 4
  store ptr %0, ptr %4, align 8, !tbaa !24
  store ptr %1, ptr %5, align 8, !tbaa !24
  store ptr %2, ptr %6, align 8, !tbaa !24
  call void @llvm.lifetime.start.p0(i64 8, ptr %7) #9
  call void @llvm.lifetime.start.p0(i64 4, ptr %8) #9
  call void @llvm.lifetime.start.p0(i64 4, ptr %9) #9
  store i32 0, ptr %8, align 4, !tbaa !10
  br label %12

12:                                               ; preds = %36, %3
  %13 = load i32, ptr %8, align 4, !tbaa !10
  %14 = load ptr, ptr %4, align 8, !tbaa !24
  %15 = call i32 @Vec_IntSize(ptr noundef %14)
  %16 = icmp slt i32 %13, %15
  br i1 %16, label %17, label %21

17:                                               ; preds = %12
  %18 = load ptr, ptr %4, align 8, !tbaa !24
  %19 = load i32, ptr %8, align 4, !tbaa !10
  %20 = call i32 @Vec_IntEntry(ptr noundef %18, i32 noundef %19)
  store i32 %20, ptr %9, align 4, !tbaa !10
  br label %21

21:                                               ; preds = %17, %12
  %22 = phi i1 [ false, %12 ], [ true, %17 ]
  br i1 %22, label %23, label %39

23:                                               ; preds = %21
  %24 = load i32, ptr %9, align 4, !tbaa !10
  %25 = call i32 @Abc_LitIsCompl(i32 noundef %24)
  %26 = icmp ne i32 %25, 0
  br i1 %26, label %27, label %31

27:                                               ; preds = %23
  %28 = load ptr, ptr %6, align 8, !tbaa !24
  %29 = load i32, ptr %9, align 4, !tbaa !10
  %30 = call i32 @Abc_Lit2Var(i32 noundef %29)
  call void @Vec_IntPush(ptr noundef %28, i32 noundef %30)
  br label %35

31:                                               ; preds = %23
  %32 = load ptr, ptr %5, align 8, !tbaa !24
  %33 = load i32, ptr %9, align 4, !tbaa !10
  %34 = call i32 @Abc_Lit2Var(i32 noundef %33)
  call void @Vec_IntPush(ptr noundef %32, i32 noundef %34)
  br label %35

35:                                               ; preds = %31, %27
  br label %36

36:                                               ; preds = %35
  %37 = load i32, ptr %8, align 4, !tbaa !10
  %38 = add nsw i32 %37, 1
  store i32 %38, ptr %8, align 4, !tbaa !10
  br label %12, !llvm.loop !68

39:                                               ; preds = %21
  %40 = load ptr, ptr %4, align 8, !tbaa !24
  %41 = call i32 @Vec_IntSize(ptr noundef %40)
  %42 = icmp eq i32 %41, 4
  br i1 %42, label %43, label %92

43:                                               ; preds = %39
  %44 = load ptr, ptr %5, align 8, !tbaa !24
  %45 = call i32 @Vec_IntSize(ptr noundef %44)
  %46 = icmp eq i32 %45, 3
  br i1 %46, label %47, label %92

47:                                               ; preds = %43
  %48 = load ptr, ptr %5, align 8, !tbaa !24
  %49 = call ptr @Vec_IntArray(ptr noundef %48)
  store ptr %49, ptr %7, align 8, !tbaa !30
  %50 = load ptr, ptr %7, align 8, !tbaa !30
  %51 = getelementptr inbounds i32, ptr %50, i64 1
  %52 = load i32, ptr %51, align 4, !tbaa !10
  %53 = load ptr, ptr %7, align 8, !tbaa !30
  %54 = getelementptr inbounds i32, ptr %53, i64 2
  %55 = load i32, ptr %54, align 4, !tbaa !10
  %56 = icmp sgt i32 %52, %55
  br i1 %56, label %57, label %69

57:                                               ; preds = %47
  call void @llvm.lifetime.start.p0(i64 4, ptr %10) #9
  %58 = load ptr, ptr %7, align 8, !tbaa !30
  %59 = getelementptr inbounds i32, ptr %58, i64 1
  %60 = load i32, ptr %59, align 4, !tbaa !10
  store i32 %60, ptr %10, align 4, !tbaa !10
  %61 = load ptr, ptr %7, align 8, !tbaa !30
  %62 = getelementptr inbounds i32, ptr %61, i64 2
  %63 = load i32, ptr %62, align 4, !tbaa !10
  %64 = load ptr, ptr %7, align 8, !tbaa !30
  %65 = getelementptr inbounds i32, ptr %64, i64 1
  store i32 %63, ptr %65, align 4, !tbaa !10
  %66 = load i32, ptr %10, align 4, !tbaa !10
  %67 = load ptr, ptr %7, align 8, !tbaa !30
  %68 = getelementptr inbounds i32, ptr %67, i64 2
  store i32 %66, ptr %68, align 4, !tbaa !10
  call void @llvm.lifetime.end.p0(i64 4, ptr %10) #9
  br label %69

69:                                               ; preds = %57, %47
  %70 = load ptr, ptr %6, align 8, !tbaa !24
  %71 = call ptr @Vec_IntArray(ptr noundef %70)
  store ptr %71, ptr %7, align 8, !tbaa !30
  %72 = load ptr, ptr %7, align 8, !tbaa !30
  %73 = getelementptr inbounds i32, ptr %72, i64 1
  %74 = load i32, ptr %73, align 4, !tbaa !10
  %75 = load ptr, ptr %7, align 8, !tbaa !30
  %76 = getelementptr inbounds i32, ptr %75, i64 2
  %77 = load i32, ptr %76, align 4, !tbaa !10
  %78 = icmp sgt i32 %74, %77
  br i1 %78, label %79, label %91

79:                                               ; preds = %69
  call void @llvm.lifetime.start.p0(i64 4, ptr %11) #9
  %80 = load ptr, ptr %7, align 8, !tbaa !30
  %81 = getelementptr inbounds i32, ptr %80, i64 1
  %82 = load i32, ptr %81, align 4, !tbaa !10
  store i32 %82, ptr %11, align 4, !tbaa !10
  %83 = load ptr, ptr %7, align 8, !tbaa !30
  %84 = getelementptr inbounds i32, ptr %83, i64 2
  %85 = load i32, ptr %84, align 4, !tbaa !10
  %86 = load ptr, ptr %7, align 8, !tbaa !30
  %87 = getelementptr inbounds i32, ptr %86, i64 1
  store i32 %85, ptr %87, align 4, !tbaa !10
  %88 = load i32, ptr %11, align 4, !tbaa !10
  %89 = load ptr, ptr %7, align 8, !tbaa !30
  %90 = getelementptr inbounds i32, ptr %89, i64 2
  store i32 %88, ptr %90, align 4, !tbaa !10
  call void @llvm.lifetime.end.p0(i64 4, ptr %11) #9
  br label %91

91:                                               ; preds = %79, %69
  br label %92

92:                                               ; preds = %91, %43, %39
  call void @llvm.lifetime.end.p0(i64 4, ptr %9) #9
  call void @llvm.lifetime.end.p0(i64 4, ptr %8) #9
  call void @llvm.lifetime.end.p0(i64 8, ptr %7) #9
  ret void
}