; Function Attrs: nounwind uwtable
define void @Fxch_DivSepareteCubes(ptr noundef readonly captures(none) %0, ptr noundef captures(none) %1, ptr noundef captures(none) %2) local_unnamed_addr #0 {
  %4 = getelementptr i8, ptr %0, i64 4
  %.val3543 = load i32, ptr %4, align 4, !tbaa !17
  %5 = icmp sgt i32 %.val3543, 0
  br i1 %5, label %.lr.ph, label %.critedge.thread

.lr.ph:                                           ; preds = %3
  %6 = getelementptr i8, ptr %0, i64 8
  %7 = getelementptr inbounds nuw i8, ptr %2, i64 4
  %.phi.trans.insert.i = getelementptr inbounds nuw i8, ptr %2, i64 8
  %8 = getelementptr inbounds nuw i8, ptr %1, i64 4
  %.phi.trans.insert.i37 = getelementptr inbounds nuw i8, ptr %1, i64 8
  br label %9

9:                                                ; preds = %.lr.ph, %68
  %indvars.iv = phi i64 [ 0, %.lr.ph ], [ %indvars.iv.next, %68 ]
  %.val = load ptr, ptr %6, align 8, !tbaa !24
  %10 = getelementptr inbounds nuw i32, ptr %.val, i64 %indvars.iv
  %11 = load i32, ptr %10, align 4, !tbaa !25
  %12 = and i32 %11, 1
  %.not = icmp eq i32 %12, 0
  %13 = ashr i32 %11, 1
  br i1 %.not, label %41, label %14

14:                                               ; preds = %9
  %15 = load i32, ptr %7, align 4, !tbaa !17
  %16 = load i32, ptr %2, align 8, !tbaa !26
  %17 = icmp eq i32 %15, %16
  br i1 %17, label %18, label %.Vec_IntGrow.exit10_crit_edge.i

.Vec_IntGrow.exit10_crit_edge.i:                  ; preds = %14
  %.pre.i = load ptr, ptr %.phi.trans.insert.i, align 8, !tbaa !24
  br label %Vec_IntPush.exit

18:                                               ; preds = %14
  %19 = icmp slt i32 %15, 16
  br i1 %19, label %20, label %27

20:                                               ; preds = %18
  %21 = load ptr, ptr %.phi.trans.insert.i, align 8, !tbaa !24
  %.not9.i.i = icmp eq ptr %21, null
  br i1 %.not9.i.i, label %24, label %22

22:                                               ; preds = %20
  %23 = tail call dereferenceable_or_null(64) ptr @realloc(ptr noundef nonnull %21, i64 noundef 64) #17
  br label %Vec_IntGrow.exit.i

24:                                               ; preds = %20
  %25 = tail call noalias dereferenceable_or_null(64) ptr @malloc(i64 noundef 64) #18
  br label %Vec_IntGrow.exit.i

Vec_IntGrow.exit.i:                               ; preds = %24, %22
  %26 = phi ptr [ %23, %22 ], [ %25, %24 ]
  store ptr %26, ptr %.phi.trans.insert.i, align 8, !tbaa !24
  store i32 16, ptr %2, align 8, !tbaa !26
  br label %Vec_IntPush.exit

27:                                               ; preds = %18
  %28 = shl nuw nsw i32 %15, 1
  %29 = load ptr, ptr %.phi.trans.insert.i, align 8, !tbaa !24
  %.not9.i9.i = icmp eq ptr %29, null
  %30 = zext nneg i32 %28 to i64
  %31 = shl nuw nsw i64 %30, 2
  br i1 %.not9.i9.i, label %34, label %32

32:                                               ; preds = %27
  %33 = tail call ptr @realloc(ptr noundef nonnull %29, i64 noundef %31) #17
  br label %36

34:                                               ; preds = %27
  %35 = tail call noalias ptr @malloc(i64 noundef %31) #18
  br label %36

36:                                               ; preds = %34, %32
  %37 = phi ptr [ %33, %32 ], [ %35, %34 ]
  store ptr %37, ptr %.phi.trans.insert.i, align 8, !tbaa !24
  store i32 %28, ptr %2, align 8, !tbaa !26
  br label %Vec_IntPush.exit

Vec_IntPush.exit:                                 ; preds = %.Vec_IntGrow.exit10_crit_edge.i, %Vec_IntGrow.exit.i, %36
  %38 = phi ptr [ %.pre.i, %.Vec_IntGrow.exit10_crit_edge.i ], [ %37, %36 ], [ %26, %Vec_IntGrow.exit.i ]
  %39 = load i32, ptr %7, align 4, !tbaa !17
  %40 = add nsw i32 %39, 1
  store i32 %40, ptr %7, align 4, !tbaa !17
  br label %68

41:                                               ; preds = %9
  %42 = load i32, ptr %8, align 4, !tbaa !17
  %43 = load i32, ptr %1, align 8, !tbaa !26
  %44 = icmp eq i32 %42, %43
  br i1 %44, label %45, label %.Vec_IntGrow.exit10_crit_edge.i36

.Vec_IntGrow.exit10_crit_edge.i36:                ; preds = %41
  %.pre.i38 = load ptr, ptr %.phi.trans.insert.i37, align 8, !tbaa !24
  br label %Vec_IntPush.exit42

45:                                               ; preds = %41
  %46 = icmp slt i32 %42, 16
  br i1 %46, label %47, label %54

47:                                               ; preds = %45
  %48 = load ptr, ptr %.phi.trans.insert.i37, align 8, !tbaa !24
  %.not9.i.i40 = icmp eq ptr %48, null
  br i1 %.not9.i.i40, label %51, label %49

49:                                               ; preds = %47
  %50 = tail call dereferenceable_or_null(64) ptr @realloc(ptr noundef nonnull %48, i64 noundef 64) #17
  br label %Vec_IntGrow.exit.i41

51:                                               ; preds = %47
  %52 = tail call noalias dereferenceable_or_null(64) ptr @malloc(i64 noundef 64) #18
  br label %Vec_IntGrow.exit.i41

Vec_IntGrow.exit.i41:                             ; preds = %51, %49
  %53 = phi ptr [ %50, %49 ], [ %52, %51 ]
  store ptr %53, ptr %.phi.trans.insert.i37, align 8, !tbaa !24
  store i32 16, ptr %1, align 8, !tbaa !26
  br label %Vec_IntPush.exit42

54:                                               ; preds = %45
  %55 = shl nuw nsw i32 %42, 1
  %56 = load ptr, ptr %.phi.trans.insert.i37, align 8, !tbaa !24
  %.not9.i9.i39 = icmp eq ptr %56, null
  %57 = zext nneg i32 %55 to i64
  %58 = shl nuw nsw i64 %57, 2
  br i1 %.not9.i9.i39, label %61, label %59

59:                                               ; preds = %54
  %60 = tail call ptr @realloc(ptr noundef nonnull %56, i64 noundef %58) #17
  br label %63

61:                                               ; preds = %54
  %62 = tail call noalias ptr @malloc(i64 noundef %58) #18
  br label %63

63:                                               ; preds = %61, %59
  %64 = phi ptr [ %60, %59 ], [ %62, %61 ]
  store ptr %64, ptr %.phi.trans.insert.i37, align 8, !tbaa !24
  store i32 %55, ptr %1, align 8, !tbaa !26
  br label %Vec_IntPush.exit42

Vec_IntPush.exit42:                               ; preds = %.Vec_IntGrow.exit10_crit_edge.i36, %Vec_IntGrow.exit.i41, %63
  %65 = phi ptr [ %.pre.i38, %.Vec_IntGrow.exit10_crit_edge.i36 ], [ %64, %63 ], [ %53, %Vec_IntGrow.exit.i41 ]
  %66 = load i32, ptr %8, align 4, !tbaa !17
  %67 = add nsw i32 %66, 1
  store i32 %67, ptr %8, align 4, !tbaa !17
  br label %68

68:                                               ; preds = %Vec_IntPush.exit, %Vec_IntPush.exit42
  %.sink = phi i32 [ %39, %Vec_IntPush.exit ], [ %66, %Vec_IntPush.exit42 ]
  %.sink48 = phi ptr [ %38, %Vec_IntPush.exit ], [ %65, %Vec_IntPush.exit42 ]
  %69 = sext i32 %.sink to i64
  %70 = getelementptr inbounds i32, ptr %.sink48, i64 %69
  store i32 %13, ptr %70, align 4, !tbaa !25
  %indvars.iv.next = add nuw nsw i64 %indvars.iv, 1
  %.val35 = load i32, ptr %4, align 4, !tbaa !17
  %71 = sext i32 %.val35 to i64
  %72 = icmp slt i64 %indvars.iv.next, %71
  br i1 %72, label %9, label %.critedge, !llvm.loop !67

.critedge:                                        ; preds = %68
  %73 = icmp eq i32 %.val35, 4
  br i1 %73, label %74, label %.critedge.thread

74:                                               ; preds = %.critedge
  %75 = getelementptr i8, ptr %1, i64 4
  %.val33 = load i32, ptr %75, align 4, !tbaa !17
  %76 = icmp eq i32 %.val33, 3
  br i1 %76, label %77, label %.critedge.thread

77:                                               ; preds = %74
  %78 = getelementptr i8, ptr %1, i64 8
  %.val31 = load ptr, ptr %78, align 8, !tbaa !24
  %79 = getelementptr inbounds nuw i8, ptr %.val31, i64 4
  %80 = load i32, ptr %79, align 4, !tbaa !25
  %81 = getelementptr inbounds nuw i8, ptr %.val31, i64 8
  %82 = load i32, ptr %81, align 4, !tbaa !25
  %83 = icmp sgt i32 %80, %82
  br i1 %83, label %84, label %85

84:                                               ; preds = %77
  store i32 %82, ptr %79, align 4, !tbaa !25
  store i32 %80, ptr %81, align 4, !tbaa !25
  br label %85

85:                                               ; preds = %84, %77
  %86 = getelementptr i8, ptr %2, i64 8
  %.val32 = load ptr, ptr %86, align 8, !tbaa !24
  %87 = getelementptr inbounds nuw i8, ptr %.val32, i64 4
  %88 = load i32, ptr %87, align 4, !tbaa !25
  %89 = getelementptr inbounds nuw i8, ptr %.val32, i64 8
  %90 = load i32, ptr %89, align 4, !tbaa !25
  %91 = icmp sgt i32 %88, %90
  br i1 %91, label %92, label %.critedge.thread

92:                                               ; preds = %85
  store i32 %90, ptr %87, align 4, !tbaa !25
  store i32 %88, ptr %89, align 4, !tbaa !25
  br label %.critedge.thread

.critedge.thread:                                 ; preds = %3, %85, %92, %74, %.critedge
  ret void
}